; Function Attrs: nounwind uwtable
define void @X509V3_section_free(ptr noundef readonly captures(none) %0, ptr noundef %1) local_unnamed_addr #0 {
  %.not = icmp eq ptr %1, null
  br i1 %.not, label %11, label %3

3:                                                ; preds = %2
  %4 = getelementptr inbounds nuw i8, ptr %0, i64 40
  %5 = load ptr, ptr %4, align 8, !tbaa !29
  %6 = getelementptr inbounds nuw i8, ptr %5, i64 24
  %7 = load ptr, ptr %6, align 8, !tbaa !47
  %.not6 = icmp eq ptr %7, null
  br i1 %.not6, label %11, label %8

8:                                                ; preds = %3
  %9 = getelementptr inbounds nuw i8, ptr %0, i64 48
  %10 = load ptr, ptr %9, align 8, !tbaa !22
  tail call void %7(ptr noundef %10, ptr noundef nonnull %1) #6
  br label %11

11:                                               ; preds = %2, %8, %3
  ret void
}